; Function Attrs: mustprogress nofree norecurse nosync nounwind willreturn memory(read, inaccessiblemem: none) uwtable
define noundef zeroext i1 @_ZNK7b2Joint9IsEnabledEv(ptr nocapture noundef nonnull readonly align 8 dereferenceable(128) %this) local_unnamed_addr #3 align 2 {
entry:
  %m_bodyA = getelementptr inbounds i8, ptr %this, i64 96
  %0 = load ptr, ptr %m_bodyA, align 8
  %m_flags.i = getelementptr inbounds i8, ptr %0, i64 4
  %1 = load i16, ptr %m_flags.i, align 4
  %2 = and i16 %1, 32
  %cmp.i.not = icmp eq i16 %2, 0
  br i1 %cmp.i.not, label %land.end, label %land.rhs

land.rhs:                                         ; preds = %entry
  %m_bodyB = getelementptr inbounds i8, ptr %this, i64 104
  %3 = load ptr, ptr %m_bodyB, align 8
  %m_flags.i1 = getelementptr inbounds i8, ptr %3, i64 4
  %4 = load i16, ptr %m_flags.i1, align 4
  %5 = and i16 %4, 32
  %cmp.i2 = icmp ne i16 %5, 0
  br label %land.end

land.end:                                         ; preds = %land.rhs, %entry
  %6 = phi i1 [ false, %entry ], [ %cmp.i2, %land.rhs ]
  ret i1 %6
}